(dp1
Va
(lp2
S'0cc175b9c0f1b6a831c399e269772661'
p3
aV3
asV
(lp4
S'd41d8cd98f00b204e9800998ecf8427e'
p5
aV9
asVc
(lp6
S'4a8a08f09d37b73795649038408b5f33'
p7
aV8
asVd
(lp8
S'8277e0910d750195b448797616e091ad'
p9
aV9
asVzenki
p10
(lp11
S'455831477b82574f6bf871193f2f761d'
p12
aV9
as.