(lp1
(lp2
V\u6F14\u793A
p3
a(lp4
Vvideo0
p5
aV192.168.100.73
p6
aV5001
p7
aVvideo0
p8
aV500
p9
aV0
aa(lp10
Vvideo1
p11
aV192.168.100.73
p12
aV5002
p13
aVvideo1
p14
aV500
p15
aV0
aa(lp16
Vvideo2
p17
aV192.168.100.73
p18
aV5002
p19
aVvideo2
p20
aV500
p21
aV0
aa(lp22
Vvideo3
p23
aV192.168.100.73
p24
aV5003
p25
aVvideo3
p26
aV500
p27
aV0
aa(lp28
Vvideo4
p29
aV192.168.100.73
p30
aV5004
p31
aVvideo4
p32
aV500
p33
aV0
aa(lp34
Vvideo5
p35
aV192.168.100.73
p36
aV5005
p37
aVvideo5
p38
aV500
p39
aV0
aa(lp40
Vvideo6
p41
aV192.168.100.73
p42
aV5006
p43
aVvideo6
p44
aV500
p45
aV0
aa(lp46
Vvideo7
p47
aV192.168.100.73
p48
aV5007
p49
aVvideo7
p50
aV500
p51
aV0
aaa.