(dp1
S'config'
p2
ccopy_reg
_reconstructor
p3
(ctwisted.plugin
CachedDropin
p4
c__builtin__
object
p5
NtRp6
(dp7
S'moduleName'
p8
S'baidu_mp3.spiders.config'
p9
sS'description'
p10
NsS'plugins'
p11
(lp12
sbsS'top100_spider'
p13
g3
(g4
g5
NtRp14
(dp15
S'moduleName'
p16
S'baidu_mp3.spiders.top100_spider'
p17
sS'description'
p18
NsS'plugins'
p19
(lp20
g3
(ctwisted.plugin
CachedPlugin
p21
g5
NtRp22
(dp23
S'provided'
p24
(lp25
cscrapy.spider.models
ISpider
p26
asS'dropin'
p27
g14
sS'name'
p28
S'SPIDER'
p29
sg18
Nsbasbs.